; Function Attrs: mustprogress uwtable
define void @_ZNK6casadi5Bilin7eval_mxERKSt6vectorINS_2MXESaIS2_EERS4_(ptr nocapture nonnull readnone align 8 %0, ptr nocapture noundef nonnull readonly align 8 dereferenceable(24) %1, ptr nocapture noundef nonnull readonly align 8 dereferenceable(24) %2) unnamed_addr #3 align 2 personality ptr @__gxx_personality_v0 {
  %4 = alloca %"class.casadi::MX", align 8
  %5 = load ptr, ptr %1, align 8
  %6 = getelementptr inbounds i8, ptr %5, i64 8
  %7 = getelementptr inbounds i8, ptr %5, i64 16
  call void @_ZN6casadi13GenericMatrixINS_2MXEE5bilinERKS1_S4_S4_(ptr dead_on_unwind nonnull writable sret(%"class.casadi::MX") align 8 %4, ptr noundef nonnull align 8 dereferenceable(8) %5, ptr noundef nonnull align 8 dereferenceable(8) %6, ptr noundef nonnull align 8 dereferenceable(8) %7)
  %8 = load ptr, ptr %2, align 8
  %9 = invoke noundef nonnull align 8 dereferenceable(8) ptr @_ZN6casadi12SharedObjectaSERKS0_(ptr noundef nonnull align 8 dereferenceable(8) %8, ptr noundef nonnull align 8 dereferenceable(8) %4)
          to label %_ZN6casadi2MXaSERKS0_.exit unwind label %10

_ZN6casadi2MXaSERKS0_.exit:                       ; preds = %3
  call void @_ZN6casadi2MXD1Ev(ptr noundef nonnull align 8 dereferenceable(8) %4) #13
  ret void

10:                                               ; preds = %3
  %11 = landingpad { ptr, i32 }
          cleanup
  call void @_ZN6casadi2MXD1Ev(ptr noundef nonnull align 8 dereferenceable(8) %4) #13
  resume { ptr, i32 } %11
}